; Function Attrs: nounwind uwtable
define range(i32 -1, 1) i32 @bufferevent_disable(ptr noundef %0, i16 noundef signext %1) local_unnamed_addr #0 {
  %3 = getelementptr inbounds nuw i8, ptr %0, i64 448
  %4 = load ptr, ptr %3, align 8
  %.not = icmp eq ptr %4, null
  br i1 %.not, label %8, label %5

5:                                                ; preds = %2
  %6 = load ptr, ptr getelementptr inbounds nuw (i8, ptr @evthread_lock_fns_, i64 24), align 8
  %7 = tail call i32 %6(i32 noundef 0, ptr noundef nonnull %4) #7
  br label %8

8:                                                ; preds = %5, %2
  %9 = xor i16 %1, -1
  %10 = getelementptr inbounds nuw i8, ptr %0, i64 368
  %11 = load i16, ptr %10, align 8
  %12 = and i16 %11, %9
  store i16 %12, ptr %10, align 8
  %13 = getelementptr inbounds nuw i8, ptr %0, i64 8
  %14 = load ptr, ptr %13, align 8
  %15 = getelementptr inbounds nuw i8, ptr %14, i64 24
  %16 = load ptr, ptr %15, align 8
  %17 = tail call i32 %16(ptr noundef nonnull %0, i16 noundef signext %1) #7
  %18 = icmp slt i32 %17, 0
  %19 = load i32, ptr @event_debug_logging_mask_, align 4
  %20 = icmp ne i32 %19, 0
  %or.cond = select i1 %18, i1 %20, i1 false
  br i1 %or.cond, label %21, label %23

21:                                               ; preds = %8
  %22 = sext i16 %1 to i32
  tail call void (ptr, ...) @event_debugx_(ptr noundef nonnull @.str.2, ptr noundef nonnull @__func__.bufferevent_disable, i32 noundef %22, ptr noundef nonnull %0) #7
  br label %23

23:                                               ; preds = %8, %21
  %24 = load ptr, ptr %3, align 8
  %.not17 = icmp eq ptr %24, null
  br i1 %.not17, label %28, label %25

25:                                               ; preds = %23
  %26 = load ptr, ptr getelementptr inbounds nuw (i8, ptr @evthread_lock_fns_, i64 32), align 8
  %27 = tail call i32 %26(i32 noundef 0, ptr noundef nonnull %24) #7
  br label %28

28:                                               ; preds = %25, %23
  %.lobit = ashr i32 %17, 31
  ret i32 %.lobit
}